; Function Attrs: mustprogress nofree norecurse nosync nounwind willreturn memory(argmem: readwrite) uwtable
define hidden void @_ZN3sls8bv_fixedC2ERNS_7bv_evalERNS_8bv_termsERNS_7contextE(ptr noundef nonnull writeonly align 8 captures(none) dereferenceable(40) initializes((0, 40)) %0, ptr noundef nonnull align 8 dereferenceable(865) %1, ptr noundef nonnull align 8 dereferenceable(64) %2, ptr noundef nonnull align 8 dereferenceable(321) %3) unnamed_addr #3 align 2 {
  store ptr %1, ptr %0, align 8, !tbaa !3
  %5 = getelementptr inbounds nuw i8, ptr %0, i64 8
  store ptr %2, ptr %5, align 8, !tbaa !8
  %6 = getelementptr inbounds nuw i8, ptr %0, i64 16
  %7 = load ptr, ptr %1, align 8, !tbaa !10
  store ptr %7, ptr %6, align 8, !tbaa !63
  %8 = getelementptr inbounds nuw i8, ptr %0, i64 24
  %9 = getelementptr inbounds nuw i8, ptr %1, i64 424
  store ptr %9, ptr %8, align 8, !tbaa !64
  %10 = getelementptr inbounds nuw i8, ptr %0, i64 32
  store ptr %3, ptr %10, align 8, !tbaa !65
  ret void
}